target datalayout = "e-m:e-p270:32:32-p271:32:32-p272:64:64-i64:64-i128:128-f80:128-n8:16:32:64-S128"
target triple = "x86_64-pc-linux-gnu"

%"class.std::__cxx11::basic_string" = type { %"struct.std::__cxx11::basic_string<char>::_Alloc_hider", i64, %union.anon }
%"struct.std::__cxx11::basic_string<char>::_Alloc_hider" = type { ptr }
%union.anon = type { i64, [8 x i8] }
%"class.absl::debian2::AlphaNum" = type { %"class.absl::debian2::string_view", [32 x i8] }
%"class.absl::debian2::string_view" = type { ptr, i64 }
%"class.std::initializer_list.6" = type { ptr, i64 }

; Function Attrs: mustprogress nounwind uwtable
define linkonce_odr dso_local { ptr, i64 } @_ZNK4absl7debian28AlphaNum5PieceEv(ptr noundef nonnull align 8 dereferenceable(48) %0) #1 comdat align 2 {
  %2 = alloca %"class.absl::debian2::string_view", align 8
  %3 = alloca ptr, align 8
  store ptr %0, ptr %3, align 8, !tbaa !11
  %4 = load ptr, ptr %3, align 8
  %5 = getelementptr inbounds nuw %"class.absl::debian2::AlphaNum", ptr %4, i32 0, i32 0
  call void @llvm.memcpy.p0.p0.i64(ptr align 8 %2, ptr align 8 %5, i64 16, i1 false), !tbaa.struct !24
  %6 = load { ptr, i64 }, ptr %2, align 8
  ret { ptr, i64 } %6
}

; Function Attrs: inlinehint mustprogress uwtable
define linkonce_odr dso_local void @_ZN4absl7debian26StrCatIJN4i18n12phonenumbers12StringHolderES4_S4_S4_S4_S4_S4_EEENSt7__cxx1112basic_stringIcSt11char_traitsIcESaIcEEERKNS0_8AlphaNumESD_SD_SD_SD_DpRKT_(ptr dead_on_unwind noalias writable sret(%"class.std::__cxx11::basic_string") align 8 %0, ptr noundef nonnull align 8 dereferenceable(48) %1, ptr noundef nonnull align 8 dereferenceable(48) %2, ptr noundef nonnull align 8 dereferenceable(48) %3, ptr noundef nonnull align 8 dereferenceable(48) %4, ptr noundef nonnull align 8 dereferenceable(48) %5, ptr noundef nonnull align 8 dereferenceable(48) %6, ptr noundef nonnull align 8 dereferenceable(48) %7, ptr noundef nonnull align 8 dereferenceable(48) %8, ptr noundef nonnull align 8 dereferenceable(48) %9, ptr noundef nonnull align 8 dereferenceable(48) %10, ptr noundef nonnull align 8 dereferenceable(48) %11, ptr noundef nonnull align 8 dereferenceable(48) %12) #4 comdat {
  %14 = alloca ptr, align 8
  %15 = alloca ptr, align 8
  %16 = alloca ptr, align 8
  %17 = alloca ptr, align 8
  %18 = alloca ptr, align 8
  %19 = alloca ptr, align 8
  %20 = alloca ptr, align 8
  %21 = alloca ptr, align 8
  %22 = alloca ptr, align 8
  %23 = alloca ptr, align 8
  %24 = alloca ptr, align 8
  %25 = alloca ptr, align 8
  %26 = alloca ptr, align 8
  %27 = alloca %"class.std::initializer_list.6", align 8
  %28 = alloca [12 x %"class.absl::debian2::string_view"], align 8
  store ptr %0, ptr %14, align 8
  store ptr %1, ptr %15, align 8, !tbaa !11
  store ptr %2, ptr %16, align 8, !tbaa !11
  store ptr %3, ptr %17, align 8, !tbaa !11
  store ptr %4, ptr %18, align 8, !tbaa !11
  store ptr %5, ptr %19, align 8, !tbaa !11
  store ptr %6, ptr %20, align 8, !tbaa !70
  store ptr %7, ptr %21, align 8, !tbaa !70
  store ptr %8, ptr %22, align 8, !tbaa !70
  store ptr %9, ptr %23, align 8, !tbaa !70
  store ptr %10, ptr %24, align 8, !tbaa !70
  store ptr %11, ptr %25, align 8, !tbaa !70
  store ptr %12, ptr %26, align 8, !tbaa !70
  call void @llvm.lifetime.start.p0(i64 192, ptr %28) #16
  %29 = load ptr, ptr %15, align 8, !tbaa !11
  %30 = call { ptr, i64 } @_ZNK4absl7debian28AlphaNum5PieceEv(ptr noundef nonnull align 8 dereferenceable(48) %29)
  %31 = getelementptr inbounds nuw { ptr, i64 }, ptr %28, i32 0, i32 0
  %32 = extractvalue { ptr, i64 } %30, 0
  store ptr %32, ptr %31, align 8
  %33 = getelementptr inbounds nuw { ptr, i64 }, ptr %28, i32 0, i32 1
  %34 = extractvalue { ptr, i64 } %30, 1
  store i64 %34, ptr %33, align 8
  %35 = getelementptr inbounds %"class.absl::debian2::string_view", ptr %28, i64 1
  %36 = load ptr, ptr %16, align 8, !tbaa !11
  %37 = call { ptr, i64 } @_ZNK4absl7debian28AlphaNum5PieceEv(ptr noundef nonnull align 8 dereferenceable(48) %36)
  %38 = getelementptr inbounds nuw { ptr, i64 }, ptr %35, i32 0, i32 0
  %39 = extractvalue { ptr, i64 } %37, 0
  store ptr %39, ptr %38, align 8
  %40 = getelementptr inbounds nuw { ptr, i64 }, ptr %35, i32 0, i32 1
  %41 = extractvalue { ptr, i64 } %37, 1
  store i64 %41, ptr %40, align 8
  %42 = getelementptr inbounds %"class.absl::debian2::string_view", ptr %28, i64 2
  %43 = load ptr, ptr %17, align 8, !tbaa !11
  %44 = call { ptr, i64 } @_ZNK4absl7debian28AlphaNum5PieceEv(ptr noundef nonnull align 8 dereferenceable(48) %43)
  %45 = getelementptr inbounds nuw { ptr, i64 }, ptr %42, i32 0, i32 0
  %46 = extractvalue { ptr, i64 } %44, 0
  store ptr %46, ptr %45, align 8
  %47 = getelementptr inbounds nuw { ptr, i64 }, ptr %42, i32 0, i32 1
  %48 = extractvalue { ptr, i64 } %44, 1
  store i64 %48, ptr %47, align 8
  %49 = getelementptr inbounds %"class.absl::debian2::string_view", ptr %28, i64 3
  %50 = load ptr, ptr %18, align 8, !tbaa !11
  %51 = call { ptr, i64 } @_ZNK4absl7debian28AlphaNum5PieceEv(ptr noundef nonnull align 8 dereferenceable(48) %50)
  %52 = getelementptr inbounds nuw { ptr, i64 }, ptr %49, i32 0, i32 0
  %53 = extractvalue { ptr, i64 } %51, 0
  store ptr %53, ptr %52, align 8
  %54 = getelementptr inbounds nuw { ptr, i64 }, ptr %49, i32 0, i32 1
  %55 = extractvalue { ptr, i64 } %51, 1
  store i64 %55, ptr %54, align 8
  %56 = getelementptr inbounds %"class.absl::debian2::string_view", ptr %28, i64 4
  %57 = load ptr, ptr %19, align 8, !tbaa !11
  %58 = call { ptr, i64 } @_ZNK4absl7debian28AlphaNum5PieceEv(ptr noundef nonnull align 8 dereferenceable(48) %57)
  %59 = getelementptr inbounds nuw { ptr, i64 }, ptr %56, i32 0, i32 0
  %60 = extractvalue { ptr, i64 } %58, 0
  store ptr %60, ptr %59, align 8
  %61 = getelementptr inbounds nuw { ptr, i64 }, ptr %56, i32 0, i32 1
  %62 = extractvalue { ptr, i64 } %58, 1
  store i64 %62, ptr %61, align 8
  %63 = getelementptr inbounds %"class.absl::debian2::string_view", ptr %28, i64 5
  %64 = load ptr, ptr %20, align 8, !tbaa !70
  %65 = call { ptr, i64 } @_ZNK4absl7debian28AlphaNum5PieceEv(ptr noundef nonnull align 8 dereferenceable(48) %64)
  %66 = getelementptr inbounds nuw { ptr, i64 }, ptr %63, i32 0, i32 0
  %67 = extractvalue { ptr, i64 } %65, 0
  store ptr %67, ptr %66, align 8
  %68 = getelementptr inbounds nuw { ptr, i64 }, ptr %63, i32 0, i32 1
  %69 = extractvalue { ptr, i64 } %65, 1
  store i64 %69, ptr %68, align 8
  %70 = getelementptr inbounds %"class.absl::debian2::string_view", ptr %28, i64 6
  %71 = load ptr, ptr %21, align 8, !tbaa !70
  %72 = call { ptr, i64 } @_ZNK4absl7debian28AlphaNum5PieceEv(ptr noundef nonnull align 8 dereferenceable(48) %71)
  %73 = getelementptr inbounds nuw { ptr, i64 }, ptr %70, i32 0, i32 0
  %74 = extractvalue { ptr, i64 } %72, 0
  store ptr %74, ptr %73, align 8
  %75 = getelementptr inbounds nuw { ptr, i64 }, ptr %70, i32 0, i32 1
  %76 = extractvalue { ptr, i64 } %72, 1
  store i64 %76, ptr %75, align 8
  %77 = getelementptr inbounds %"class.absl::debian2::string_view", ptr %28, i64 7
  %78 = load ptr, ptr %22, align 8, !tbaa !70
  %79 = call { ptr, i64 } @_ZNK4absl7debian28AlphaNum5PieceEv(ptr noundef nonnull align 8 dereferenceable(48) %78)
  %80 = getelementptr inbounds nuw { ptr, i64 }, ptr %77, i32 0, i32 0
  %81 = extractvalue { ptr, i64 } %79, 0
  store ptr %81, ptr %80, align 8
  %82 = getelementptr inbounds nuw { ptr, i64 }, ptr %77, i32 0, i32 1
  %83 = extractvalue { ptr, i64 } %79, 1
  store i64 %83, ptr %82, align 8
  %84 = getelementptr inbounds %"class.absl::debian2::string_view", ptr %28, i64 8
  %85 = load ptr, ptr %23, align 8, !tbaa !70
  %86 = call { ptr, i64 } @_ZNK4absl7debian28AlphaNum5PieceEv(ptr noundef nonnull align 8 dereferenceable(48) %85)
  %87 = getelementptr inbounds nuw { ptr, i64 }, ptr %84, i32 0, i32 0
  %88 = extractvalue { ptr, i64 } %86, 0
  store ptr %88, ptr %87, align 8
  %89 = getelementptr inbounds nuw { ptr, i64 }, ptr %84, i32 0, i32 1
  %90 = extractvalue { ptr, i64 } %86, 1
  store i64 %90, ptr %89, align 8
  %91 = getelementptr inbounds %"class.absl::debian2::string_view", ptr %28, i64 9
  %92 = load ptr, ptr %24, align 8, !tbaa !70
  %93 = call { ptr, i64 } @_ZNK4absl7debian28AlphaNum5PieceEv(ptr noundef nonnull align 8 dereferenceable(48) %92)
  %94 = getelementptr inbounds nuw { ptr, i64 }, ptr %91, i32 0, i32 0
  %95 = extractvalue { ptr, i64 } %93, 0
  store ptr %95, ptr %94, align 8
  %96 = getelementptr inbounds nuw { ptr, i64 }, ptr %91, i32 0, i32 1
  %97 = extractvalue { ptr, i64 } %93, 1
  store i64 %97, ptr %96, align 8
  %98 = getelementptr inbounds %"class.absl::debian2::string_view", ptr %28, i64 10
  %99 = load ptr, ptr %25, align 8, !tbaa !70
  %100 = call { ptr, i64 } @_ZNK4absl7debian28AlphaNum5PieceEv(ptr noundef nonnull align 8 dereferenceable(48) %99)
  %101 = getelementptr inbounds nuw { ptr, i64 }, ptr %98, i32 0, i32 0
  %102 = extractvalue { ptr, i64 } %100, 0
  store ptr %102, ptr %101, align 8
  %103 = getelementptr inbounds nuw { ptr, i64 }, ptr %98, i32 0, i32 1
  %104 = extractvalue { ptr, i64 } %100, 1
  store i64 %104, ptr %103, align 8
  %105 = getelementptr inbounds %"class.absl::debian2::string_view", ptr %28, i64 11
  %106 = load ptr, ptr %26, align 8, !tbaa !70
  %107 = call { ptr, i64 } @_ZNK4absl7debian28AlphaNum5PieceEv(ptr noundef nonnull align 8 dereferenceable(48) %106)
  %108 = getelementptr inbounds nuw { ptr, i64 }, ptr %105, i32 0, i32 0
  %109 = extractvalue { ptr, i64 } %107, 0
  store ptr %109, ptr %108, align 8
  %110 = getelementptr inbounds nuw { ptr, i64 }, ptr %105, i32 0, i32 1
  %111 = extractvalue { ptr, i64 } %107, 1
  store i64 %111, ptr %110, align 8
  %112 = getelementptr inbounds nuw %"class.std::initializer_list.6", ptr %27, i32 0, i32 0
  store ptr %28, ptr %112, align 8, !tbaa !74
  %113 = getelementptr inbounds nuw %"class.std::initializer_list.6", ptr %27, i32 0, i32 1
  store i64 12, ptr %113, align 8, !tbaa !76
  %114 = getelementptr inbounds nuw { ptr, i64 }, ptr %27, i32 0, i32 0
  %115 = load ptr, ptr %114, align 8
  %116 = getelementptr inbounds nuw { ptr, i64 }, ptr %27, i32 0, i32 1
  %117 = load i64, ptr %116, align 8
  call void @_ZN4absl7debian216strings_internal9CatPiecesB5cxx11ESt16initializer_listINS0_11string_viewEE(ptr dead_on_unwind writable sret(%"class.std::__cxx11::basic_string") align 8 %0, ptr %115, i64 %117)
  call void @llvm.lifetime.end.p0(i64 192, ptr %28) #16
  ret void
}

; Function Attrs: mustprogress uwtable
define dso_local void @_ZN4i18n12phonenumbers6StrCatB5cxx11ERKNS0_12StringHolderES3_S3_S3_S3_S3_S3_S3_S3_S3_S3_S3_(ptr dead_on_unwind noalias writable sret(%"class.std::__cxx11::basic_string") align 8 %0, ptr noundef nonnull align 8 dereferenceable(48) %1, ptr noundef nonnull align 8 dereferenceable(48) %2, ptr noundef nonnull align 8 dereferenceable(48) %3, ptr noundef nonnull align 8 dereferenceable(48) %4, ptr noundef nonnull align 8 dereferenceable(48) %5, ptr noundef nonnull align 8 dereferenceable(48) %6, ptr noundef nonnull align 8 dereferenceable(48) %7, ptr noundef nonnull align 8 dereferenceable(48) %8, ptr noundef nonnull align 8 dereferenceable(48) %9, ptr noundef nonnull align 8 dereferenceable(48) %10, ptr noundef nonnull align 8 dereferenceable(48) %11, ptr noundef nonnull align 8 dereferenceable(48) %12) #0 {
  %14 = alloca ptr, align 8
  %15 = alloca ptr, align 8
  %16 = alloca ptr, align 8
  %17 = alloca ptr, align 8
  %18 = alloca ptr, align 8
  %19 = alloca ptr, align 8
  %20 = alloca ptr, align 8
  %21 = alloca ptr, align 8
  %22 = alloca ptr, align 8
  %23 = alloca ptr, align 8
  %24 = alloca ptr, align 8
  %25 = alloca ptr, align 8
  %26 = alloca ptr, align 8
  store ptr %0, ptr %14, align 8
  store ptr %1, ptr %15, align 8, !tbaa !70
  store ptr %2, ptr %16, align 8, !tbaa !70
  store ptr %3, ptr %17, align 8, !tbaa !70
  store ptr %4, ptr %18, align 8, !tbaa !70
  store ptr %5, ptr %19, align 8, !tbaa !70
  store ptr %6, ptr %20, align 8, !tbaa !70
  store ptr %7, ptr %21, align 8, !tbaa !70
  store ptr %8, ptr %22, align 8, !tbaa !70
  store ptr %9, ptr %23, align 8, !tbaa !70
  store ptr %10, ptr %24, align 8, !tbaa !70
  store ptr %11, ptr %25, align 8, !tbaa !70
  store ptr %12, ptr %26, align 8, !tbaa !70
  %27 = load ptr, ptr %15, align 8, !tbaa !70
  %28 = load ptr, ptr %16, align 8, !tbaa !70
  %29 = load ptr, ptr %17, align 8, !tbaa !70
  %30 = load ptr, ptr %18, align 8, !tbaa !70
  %31 = load ptr, ptr %19, align 8, !tbaa !70
  %32 = load ptr, ptr %20, align 8, !tbaa !70
  %33 = load ptr, ptr %21, align 8, !tbaa !70
  %34 = load ptr, ptr %22, align 8, !tbaa !70
  %35 = load ptr, ptr %23, align 8, !tbaa !70
  %36 = load ptr, ptr %24, align 8, !tbaa !70
  %37 = load ptr, ptr %25, align 8, !tbaa !70
  %38 = load ptr, ptr %26, align 8, !tbaa !70
  call void @_ZN4absl7debian26StrCatIJN4i18n12phonenumbers12StringHolderES4_S4_S4_S4_S4_S4_EEENSt7__cxx1112basic_stringIcSt11char_traitsIcESaIcEEERKNS0_8AlphaNumESD_SD_SD_SD_DpRKT_(ptr dead_on_unwind writable sret(%"class.std::__cxx11::basic_string") align 8 %0, ptr noundef nonnull align 8 dereferenceable(48) %27, ptr noundef nonnull align 8 dereferenceable(48) %28, ptr noundef nonnull align 8 dereferenceable(48) %29, ptr noundef nonnull align 8 dereferenceable(48) %30, ptr noundef nonnull align 8 dereferenceable(48) %31, ptr noundef nonnull align 8 dereferenceable(48) %32, ptr noundef nonnull align 8 dereferenceable(48) %33, ptr noundef nonnull align 8 dereferenceable(48) %34, ptr noundef nonnull align 8 dereferenceable(48) %35, ptr noundef nonnull align 8 dereferenceable(48) %36, ptr noundef nonnull align 8 dereferenceable(48) %37, ptr noundef nonnull align 8 dereferenceable(48) %38)
  ret void
}