; Function Attrs: mustprogress uwtable
define dso_local void @_ZN4i18n12phonenumbers6StrCatB5cxx11ERKNS0_12StringHolderES3_S3_S3_S3_S3_S3_S3_S3_S3_S3_S3_(ptr dead_on_unwind noalias writable sret(%"class.std::__cxx11::basic_string") align 8 %0, ptr noundef nonnull readonly align 8 captures(none) dereferenceable(48) %1, ptr noundef nonnull readonly align 8 captures(none) dereferenceable(48) %2, ptr noundef nonnull readonly align 8 captures(none) dereferenceable(48) %3, ptr noundef nonnull readonly align 8 captures(none) dereferenceable(48) %4, ptr noundef nonnull readonly align 8 captures(none) dereferenceable(48) %5, ptr noundef nonnull readonly align 8 captures(none) dereferenceable(48) %6, ptr noundef nonnull readonly align 8 captures(none) dereferenceable(48) %7, ptr noundef nonnull readonly align 8 captures(none) dereferenceable(48) %8, ptr noundef nonnull readonly align 8 captures(none) dereferenceable(48) %9, ptr noundef nonnull readonly align 8 captures(none) dereferenceable(48) %10, ptr noundef nonnull readonly align 8 captures(none) dereferenceable(48) %11, ptr noundef nonnull readonly align 8 captures(none) dereferenceable(48) %12) local_unnamed_addr #0 {
  %14 = alloca [12 x %"class.absl::debian2::string_view"], align 8
  call void @llvm.lifetime.start.p0(i64 192, ptr nonnull %14) #19, !noalias !82
  %.sroa.0.0.copyload.i.i = load ptr, ptr %1, align 8, !tbaa !31, !noalias !82
  %.sroa.2.0..sroa_idx.i.i = getelementptr inbounds nuw i8, ptr %1, i64 8
  %.sroa.2.0.copyload.i.i = load i64, ptr %.sroa.2.0..sroa_idx.i.i, align 8, !tbaa !22, !noalias !82
  store ptr %.sroa.0.0.copyload.i.i, ptr %14, align 8, !noalias !82
  %15 = getelementptr inbounds nuw i8, ptr %14, i64 8
  store i64 %.sroa.2.0.copyload.i.i, ptr %15, align 8, !noalias !82
  %16 = getelementptr inbounds nuw i8, ptr %14, i64 16
  %.sroa.0.0.copyload.i12.i = load ptr, ptr %2, align 8, !tbaa !31, !noalias !82
  %.sroa.2.0..sroa_idx.i13.i = getelementptr inbounds nuw i8, ptr %2, i64 8
  %.sroa.2.0.copyload.i14.i = load i64, ptr %.sroa.2.0..sroa_idx.i13.i, align 8, !tbaa !22, !noalias !82
  store ptr %.sroa.0.0.copyload.i12.i, ptr %16, align 8, !noalias !82
  %17 = getelementptr inbounds nuw i8, ptr %14, i64 24
  store i64 %.sroa.2.0.copyload.i14.i, ptr %17, align 8, !noalias !82
  %18 = getelementptr inbounds nuw i8, ptr %14, i64 32
  %.sroa.0.0.copyload.i17.i = load ptr, ptr %3, align 8, !tbaa !31, !noalias !82
  %.sroa.2.0..sroa_idx.i18.i = getelementptr inbounds nuw i8, ptr %3, i64 8
  %.sroa.2.0.copyload.i19.i = load i64, ptr %.sroa.2.0..sroa_idx.i18.i, align 8, !tbaa !22, !noalias !82
  store ptr %.sroa.0.0.copyload.i17.i, ptr %18, align 8, !noalias !82
  %19 = getelementptr inbounds nuw i8, ptr %14, i64 40
  store i64 %.sroa.2.0.copyload.i19.i, ptr %19, align 8, !noalias !82
  %20 = getelementptr inbounds nuw i8, ptr %14, i64 48
  %.sroa.0.0.copyload.i22.i = load ptr, ptr %4, align 8, !tbaa !31, !noalias !82
  %.sroa.2.0..sroa_idx.i23.i = getelementptr inbounds nuw i8, ptr %4, i64 8
  %.sroa.2.0.copyload.i24.i = load i64, ptr %.sroa.2.0..sroa_idx.i23.i, align 8, !tbaa !22, !noalias !82
  store ptr %.sroa.0.0.copyload.i22.i, ptr %20, align 8, !noalias !82
  %21 = getelementptr inbounds nuw i8, ptr %14, i64 56
  store i64 %.sroa.2.0.copyload.i24.i, ptr %21, align 8, !noalias !82
  %22 = getelementptr inbounds nuw i8, ptr %14, i64 64
  %.sroa.0.0.copyload.i27.i = load ptr, ptr %5, align 8, !tbaa !31, !noalias !82
  %.sroa.2.0..sroa_idx.i28.i = getelementptr inbounds nuw i8, ptr %5, i64 8
  %.sroa.2.0.copyload.i29.i = load i64, ptr %.sroa.2.0..sroa_idx.i28.i, align 8, !tbaa !22, !noalias !82
  store ptr %.sroa.0.0.copyload.i27.i, ptr %22, align 8, !noalias !82
  %23 = getelementptr inbounds nuw i8, ptr %14, i64 72
  store i64 %.sroa.2.0.copyload.i29.i, ptr %23, align 8, !noalias !82
  %24 = getelementptr inbounds nuw i8, ptr %14, i64 80
  %.sroa.0.0.copyload.i32.i = load ptr, ptr %6, align 8, !tbaa !31, !noalias !82
  %.sroa.2.0..sroa_idx.i33.i = getelementptr inbounds nuw i8, ptr %6, i64 8
  %.sroa.2.0.copyload.i34.i = load i64, ptr %.sroa.2.0..sroa_idx.i33.i, align 8, !tbaa !22, !noalias !82
  store ptr %.sroa.0.0.copyload.i32.i, ptr %24, align 8, !noalias !82
  %25 = getelementptr inbounds nuw i8, ptr %14, i64 88
  store i64 %.sroa.2.0.copyload.i34.i, ptr %25, align 8, !noalias !82
  %26 = getelementptr inbounds nuw i8, ptr %14, i64 96
  %.sroa.0.0.copyload.i37.i = load ptr, ptr %7, align 8, !tbaa !31, !noalias !82
  %.sroa.2.0..sroa_idx.i38.i = getelementptr inbounds nuw i8, ptr %7, i64 8
  %.sroa.2.0.copyload.i39.i = load i64, ptr %.sroa.2.0..sroa_idx.i38.i, align 8, !tbaa !22, !noalias !82
  store ptr %.sroa.0.0.copyload.i37.i, ptr %26, align 8, !noalias !82
  %27 = getelementptr inbounds nuw i8, ptr %14, i64 104
  store i64 %.sroa.2.0.copyload.i39.i, ptr %27, align 8, !noalias !82
  %28 = getelementptr inbounds nuw i8, ptr %14, i64 112
  %.sroa.0.0.copyload.i42.i = load ptr, ptr %8, align 8, !tbaa !31, !noalias !82
  %.sroa.2.0..sroa_idx.i43.i = getelementptr inbounds nuw i8, ptr %8, i64 8
  %.sroa.2.0.copyload.i44.i = load i64, ptr %.sroa.2.0..sroa_idx.i43.i, align 8, !tbaa !22, !noalias !82
  store ptr %.sroa.0.0.copyload.i42.i, ptr %28, align 8, !noalias !82
  %29 = getelementptr inbounds nuw i8, ptr %14, i64 120
  store i64 %.sroa.2.0.copyload.i44.i, ptr %29, align 8, !noalias !82
  %30 = getelementptr inbounds nuw i8, ptr %14, i64 128
  %.sroa.0.0.copyload.i47.i = load ptr, ptr %9, align 8, !tbaa !31, !noalias !82
  %.sroa.2.0..sroa_idx.i48.i = getelementptr inbounds nuw i8, ptr %9, i64 8
  %.sroa.2.0.copyload.i49.i = load i64, ptr %.sroa.2.0..sroa_idx.i48.i, align 8, !tbaa !22, !noalias !82
  store ptr %.sroa.0.0.copyload.i47.i, ptr %30, align 8, !noalias !82
  %31 = getelementptr inbounds nuw i8, ptr %14, i64 136
  store i64 %.sroa.2.0.copyload.i49.i, ptr %31, align 8, !noalias !82
  %32 = getelementptr inbounds nuw i8, ptr %14, i64 144
  %.sroa.0.0.copyload.i52.i = load ptr, ptr %10, align 8, !tbaa !31, !noalias !82
  %.sroa.2.0..sroa_idx.i53.i = getelementptr inbounds nuw i8, ptr %10, i64 8
  %.sroa.2.0.copyload.i54.i = load i64, ptr %.sroa.2.0..sroa_idx.i53.i, align 8, !tbaa !22, !noalias !82
  store ptr %.sroa.0.0.copyload.i52.i, ptr %32, align 8, !noalias !82
  %33 = getelementptr inbounds nuw i8, ptr %14, i64 152
  store i64 %.sroa.2.0.copyload.i54.i, ptr %33, align 8, !noalias !82
  %34 = getelementptr inbounds nuw i8, ptr %14, i64 160
  %.sroa.0.0.copyload.i57.i = load ptr, ptr %11, align 8, !tbaa !31, !noalias !82
  %.sroa.2.0..sroa_idx.i58.i = getelementptr inbounds nuw i8, ptr %11, i64 8
  %.sroa.2.0.copyload.i59.i = load i64, ptr %.sroa.2.0..sroa_idx.i58.i, align 8, !tbaa !22, !noalias !82
  store ptr %.sroa.0.0.copyload.i57.i, ptr %34, align 8, !noalias !82
  %35 = getelementptr inbounds nuw i8, ptr %14, i64 168
  store i64 %.sroa.2.0.copyload.i59.i, ptr %35, align 8, !noalias !82
  %36 = getelementptr inbounds nuw i8, ptr %14, i64 176
  %.sroa.0.0.copyload.i62.i = load ptr, ptr %12, align 8, !tbaa !31, !noalias !82
  %.sroa.2.0..sroa_idx.i63.i = getelementptr inbounds nuw i8, ptr %12, i64 8
  %.sroa.2.0.copyload.i64.i = load i64, ptr %.sroa.2.0..sroa_idx.i63.i, align 8, !tbaa !22, !noalias !82
  store ptr %.sroa.0.0.copyload.i62.i, ptr %36, align 8, !noalias !82
  %37 = getelementptr inbounds nuw i8, ptr %14, i64 184
  store i64 %.sroa.2.0.copyload.i64.i, ptr %37, align 8, !noalias !82
  call void @_ZN4absl7debian216strings_internal9CatPiecesB5cxx11ESt16initializer_listINS0_11string_viewEE(ptr dead_on_unwind writable sret(%"class.std::__cxx11::basic_string") align 8 %0, ptr nonnull %14, i64 12)
  call void @llvm.lifetime.end.p0(i64 192, ptr nonnull %14) #19, !noalias !82
  ret void
}